target datalayout = "e-m:e-p270:32:32-p271:32:32-p272:64:64-i64:64-i128:128-f80:128-n8:16:32:64-S128"
target triple = "x86_64-pc-linux-gnu"

@_last_expanded = internal global ptr null, align 8
@_drop_widget = internal global ptr null, align 8
@dtgtk_expander_set_drag_hover.last_time = internal global i32 0, align 4
@.str.2 = private unnamed_addr constant [18 x i8] c"module_drop_after\00", align 1
@.str.3 = private unnamed_addr constant [19 x i8] c"module_drop_before\00", align 1

; Function Attrs: nounwind uwtable
define void @dtgtk_expander_set_drag_hover(ptr noundef %0, i32 noundef %1, i32 noundef %2, i32 noundef %3) #0 {
  %5 = alloca ptr, align 8
  %6 = alloca i32, align 4
  %7 = alloca i32, align 4
  %8 = alloca i32, align 4
  %9 = alloca ptr, align 8
  %10 = alloca i32, align 4
  store ptr %0, ptr %5, align 8, !tbaa !15
  store i32 %1, ptr %6, align 4, !tbaa !13
  store i32 %2, ptr %7, align 4, !tbaa !13
  store i32 %3, ptr %8, align 4, !tbaa !13
  call void @llvm.lifetime.start.p0(i64 8, ptr %9) #10
  %11 = load ptr, ptr %5, align 8, !tbaa !15
  %12 = icmp ne ptr %11, null
  br i1 %12, label %13, label %17

13:                                               ; preds = %4
  %14 = load ptr, ptr %5, align 8, !tbaa !15
  %15 = call i64 @gtk_widget_get_type() #11
  %16 = call ptr @g_type_check_instance_cast(ptr noundef %14, i64 noundef %15)
  br label %19

17:                                               ; preds = %4
  %18 = load ptr, ptr @_drop_widget, align 8, !tbaa !41
  br label %19

19:                                               ; preds = %17, %13
  %20 = phi ptr [ %16, %13 ], [ %18, %17 ]
  store ptr %20, ptr %9, align 8, !tbaa !41
  %21 = load ptr, ptr %9, align 8, !tbaa !41
  %22 = icmp ne ptr %21, null
  br i1 %22, label %23, label %37

23:                                               ; preds = %19
  %24 = load i32, ptr %6, align 4, !tbaa !13
  %25 = icmp ne i32 %24, 0
  br i1 %25, label %38, label %26

26:                                               ; preds = %23
  %27 = load i32, ptr %7, align 4, !tbaa !13
  %28 = icmp ne i32 %27, 0
  br i1 %28, label %38, label %29

29:                                               ; preds = %26
  %30 = load ptr, ptr %9, align 8, !tbaa !41
  %31 = load ptr, ptr @_drop_widget, align 8, !tbaa !41
  %32 = icmp eq ptr %30, %31
  br i1 %32, label %33, label %38

33:                                               ; preds = %29
  %34 = load i32, ptr %8, align 4, !tbaa !13
  %35 = load i32, ptr @dtgtk_expander_set_drag_hover.last_time, align 4, !tbaa !13
  %36 = icmp eq i32 %34, %35
  br i1 %36, label %37, label %38

37:                                               ; preds = %33, %19
  store i32 1, ptr %10, align 4
  br label %63

38:                                               ; preds = %33, %29, %26, %23
  %39 = load ptr, ptr %9, align 8, !tbaa !41
  call void @dt_gui_remove_class(ptr noundef %39, ptr noundef @.str.2)
  %40 = load ptr, ptr %9, align 8, !tbaa !41
  call void @dt_gui_remove_class(ptr noundef %40, ptr noundef @.str.3)
  %41 = load i32, ptr %6, align 4, !tbaa !13
  %42 = icmp ne i32 %41, 0
  br i1 %42, label %46, label %43

43:                                               ; preds = %38
  %44 = load i32, ptr %7, align 4, !tbaa !13
  %45 = icmp ne i32 %44, 0
  br i1 %45, label %46, label %62

46:                                               ; preds = %43, %38
  %47 = load ptr, ptr %9, align 8, !tbaa !41
  store ptr %47, ptr @_drop_widget, align 8, !tbaa !41
  store ptr null, ptr @_last_expanded, align 8, !tbaa !41
  %48 = load i32, ptr %8, align 4, !tbaa !13
  store i32 %48, ptr @dtgtk_expander_set_drag_hover.last_time, align 4, !tbaa !13
  %49 = load i32, ptr %6, align 4, !tbaa !13
  %50 = icmp ne i32 %49, 0
  br i1 %50, label %53, label %51

51:                                               ; preds = %46
  %52 = load ptr, ptr %9, align 8, !tbaa !41
  call void @gtk_widget_queue_resize(ptr noundef %52)
  br label %61

53:                                               ; preds = %46
  %54 = load i32, ptr %7, align 4, !tbaa !13
  %55 = icmp ne i32 %54, 0
  br i1 %55, label %56, label %58

56:                                               ; preds = %53
  %57 = load ptr, ptr %9, align 8, !tbaa !41
  call void @dt_gui_add_class(ptr noundef %57, ptr noundef @.str.3)
  br label %60

58:                                               ; preds = %53
  %59 = load ptr, ptr %9, align 8, !tbaa !41
  call void @dt_gui_add_class(ptr noundef %59, ptr noundef @.str.2)
  br label %60

60:                                               ; preds = %58, %56
  br label %61

61:                                               ; preds = %60, %51
  br label %62

62:                                               ; preds = %61, %43
  store i32 0, ptr %10, align 4
  br label %63

63:                                               ; preds = %62, %37
  call void @llvm.lifetime.end.p0(i64 8, ptr %9) #10
  %64 = load i32, ptr %10, align 4
  switch i32 %64, label %66 [
    i32 0, label %65
    i32 1, label %65
  ]

65:                                               ; preds = %63, %63
  ret void

66:                                               ; preds = %63
  unreachable
}

; Function Attrs: nounwind uwtable
define internal void @_expander_drag_end(ptr noundef %0, ptr noundef %1, ptr noundef %2) #0 {
  %4 = alloca ptr, align 8
  %5 = alloca ptr, align 8
  %6 = alloca ptr, align 8
  store ptr %0, ptr %4, align 8, !tbaa !41
  store ptr %1, ptr %5, align 8, !tbaa !44
  store ptr %2, ptr %6, align 8, !tbaa !30
  call void @dtgtk_expander_set_drag_hover(ptr noundef null, i32 noundef 0, i32 noundef 0, i32 noundef 0)
  store ptr null, ptr @_drop_widget, align 8, !tbaa !41
  %7 = load ptr, ptr %4, align 8, !tbaa !41
  call void @gtk_widget_set_opacity(ptr noundef %7, double noundef 1.000000e+00)
  ret void
}