; Function Attrs: nounwind uwtable
define internal void @_expander_drag_end(ptr noundef %0, ptr readnone captures(none) %1, ptr readnone captures(none) %2) #0 {
  %4 = load ptr, ptr @_drop_widget, align 8, !tbaa !34
  %.not21.i = icmp eq ptr %4, null
  %5 = load i32, ptr @dtgtk_expander_set_drag_hover.last_time, align 4
  %6 = icmp eq i32 %5, 0
  %or.cond = select i1 %.not21.i, i1 true, i1 %6
  br i1 %or.cond, label %dtgtk_expander_set_drag_hover.exit, label %7

7:                                                ; preds = %3
  tail call void @dt_gui_remove_class(ptr noundef nonnull %4, ptr noundef nonnull @.str.2) #10
  tail call void @dt_gui_remove_class(ptr noundef nonnull %4, ptr noundef nonnull @.str.3) #10
  br label %dtgtk_expander_set_drag_hover.exit

dtgtk_expander_set_drag_hover.exit:               ; preds = %3, %7
  store ptr null, ptr @_drop_widget, align 8, !tbaa !34
  tail call void @gtk_widget_set_opacity(ptr noundef %0, double noundef 1.000000e+00) #10
  ret void
}